; Function Attrs: nofree norecurse nosync nounwind memory(argmem: readwrite) uwtable
define internal void @avg_pixels16_y2_8_c(ptr noundef captures(none) %0, ptr noundef readonly captures(none) %1, i64 noundef %2, i32 noundef %3) #1 {
  %5 = getelementptr inbounds i8, ptr %1, i64 %2
  %6 = icmp sgt i32 %3, 0
  br i1 %6, label %.lr.ph.preheader.i.i, label %avg_pixels8_y2_8_c.exit14

.lr.ph.preheader.i.i:                             ; preds = %4
  %sext.i = shl i64 %2, 32
  %7 = ashr exact i64 %sext.i, 32
  %wide.trip.count.i.i = zext nneg i32 %3 to i64
  br label %.lr.ph.i.i

.lr.ph.i.i:                                       ; preds = %.lr.ph.i.i, %.lr.ph.preheader.i.i
  %indvars.iv.i.i = phi i64 [ 0, %.lr.ph.preheader.i.i ], [ %indvars.iv.next.i.i, %.lr.ph.i.i ]
  %8 = mul nsw i64 %indvars.iv.i.i, %7
  %9 = getelementptr inbounds i8, ptr %1, i64 %8
  %10 = load i32, ptr %9, align 1, !tbaa !8
  %11 = getelementptr inbounds i8, ptr %5, i64 %8
  %12 = load i32, ptr %11, align 1, !tbaa !8
  %13 = getelementptr inbounds i8, ptr %0, i64 %8
  %14 = load i32, ptr %13, align 4, !tbaa !9
  %15 = or i32 %12, %10
  %16 = xor i32 %12, %10
  %17 = lshr i32 %16, 1
  %18 = and i32 %17, 2139062143
  %19 = sub i32 %15, %18
  %20 = or i32 %19, %14
  %21 = xor i32 %19, %14
  %22 = lshr i32 %21, 1
  %23 = and i32 %22, 2139062143
  %24 = sub i32 %20, %23
  store i32 %24, ptr %13, align 4, !tbaa !9
  %25 = getelementptr i8, ptr %9, i64 4
  %26 = load i32, ptr %25, align 1, !tbaa !8
  %27 = getelementptr i8, ptr %11, i64 4
  %28 = load i32, ptr %27, align 1, !tbaa !8
  %29 = getelementptr i8, ptr %13, i64 4
  %30 = load i32, ptr %29, align 4, !tbaa !9
  %31 = or i32 %28, %26
  %32 = xor i32 %28, %26
  %33 = lshr i32 %32, 1
  %34 = and i32 %33, 2139062143
  %35 = sub i32 %31, %34
  %36 = or i32 %35, %30
  %37 = xor i32 %35, %30
  %38 = lshr i32 %37, 1
  %39 = and i32 %38, 2139062143
  %40 = sub i32 %36, %39
  store i32 %40, ptr %29, align 4, !tbaa !9
  %indvars.iv.next.i.i = add nuw nsw i64 %indvars.iv.i.i, 1
  %exitcond.not.i.i = icmp eq i64 %indvars.iv.next.i.i, %wide.trip.count.i.i
  br i1 %exitcond.not.i.i, label %.lr.ph.preheader.i.i7, label %.lr.ph.i.i, !llvm.loop !28

.lr.ph.preheader.i.i7:                            ; preds = %.lr.ph.i.i
  %41 = getelementptr inbounds nuw i8, ptr %0, i64 8
  %42 = getelementptr inbounds nuw i8, ptr %1, i64 8
  %43 = getelementptr inbounds i8, ptr %42, i64 %2
  br label %.lr.ph.i.i10

.lr.ph.i.i10:                                     ; preds = %.lr.ph.i.i10, %.lr.ph.preheader.i.i7
  %indvars.iv.i.i11 = phi i64 [ 0, %.lr.ph.preheader.i.i7 ], [ %indvars.iv.next.i.i12, %.lr.ph.i.i10 ]
  %44 = mul nsw i64 %indvars.iv.i.i11, %7
  %45 = getelementptr inbounds i8, ptr %42, i64 %44
  %46 = load i32, ptr %45, align 1, !tbaa !8
  %47 = getelementptr inbounds i8, ptr %43, i64 %44
  %48 = load i32, ptr %47, align 1, !tbaa !8
  %49 = getelementptr inbounds i8, ptr %41, i64 %44
  %50 = load i32, ptr %49, align 4, !tbaa !9
  %51 = or i32 %48, %46
  %52 = xor i32 %48, %46
  %53 = lshr i32 %52, 1
  %54 = and i32 %53, 2139062143
  %55 = sub i32 %51, %54
  %56 = or i32 %55, %50
  %57 = xor i32 %55, %50
  %58 = lshr i32 %57, 1
  %59 = and i32 %58, 2139062143
  %60 = sub i32 %56, %59
  store i32 %60, ptr %49, align 4, !tbaa !9
  %61 = getelementptr i8, ptr %45, i64 4
  %62 = load i32, ptr %61, align 1, !tbaa !8
  %63 = getelementptr i8, ptr %47, i64 4
  %64 = load i32, ptr %63, align 1, !tbaa !8
  %65 = getelementptr i8, ptr %49, i64 4
  %66 = load i32, ptr %65, align 4, !tbaa !9
  %67 = or i32 %64, %62
  %68 = xor i32 %64, %62
  %69 = lshr i32 %68, 1
  %70 = and i32 %69, 2139062143
  %71 = sub i32 %67, %70
  %72 = or i32 %71, %66
  %73 = xor i32 %71, %66
  %74 = lshr i32 %73, 1
  %75 = and i32 %74, 2139062143
  %76 = sub i32 %72, %75
  store i32 %76, ptr %65, align 4, !tbaa !9
  %indvars.iv.next.i.i12 = add nuw nsw i64 %indvars.iv.i.i11, 1
  %exitcond.not.i.i13 = icmp eq i64 %indvars.iv.next.i.i12, %wide.trip.count.i.i
  br i1 %exitcond.not.i.i13, label %avg_pixels8_y2_8_c.exit14, label %.lr.ph.i.i10, !llvm.loop !28

avg_pixels8_y2_8_c.exit14:                        ; preds = %.lr.ph.i.i10, %4
  ret void
}